(lp1
(lp2
(I191
I213
tp3
a(F170.1641398850378
F157.86295816097484
tp4
a(F167.98322664832361
F163.99309266417146
tp5
a(F167.72797676669893
F164.7105517909003
tp6
a(F167.47772682320897
F165.41395703746673
tp7
a(F164.48237604477848
F173.83332138764968
tp8
a(F164.28704534474429
F174.38235903098902
tp9
a(F164.09450630765963
F174.92354983792967
tp10
a(F163.21028382503042
F177.40893195126586
tp11
a(F163.17779527500628
F177.50025111890125
tp12
a(F163.03208357420101
F177.90981914278638
tp13
a(F163
F178
tp14
a(F162.91075532921721
F178.47172183128041
tp15
a(F162.89114881076728
F178.57535628594431
tp16
a(F162.49791293935786
F180.65388874910849
tp17
a(F162.39712918660285
F181.1866028708134
tp18
a(F162.29787098124527
F181.71125338484643
tp19
a(F162.12022852402026
F182.65022065875007
tp20
a(F162.02500000000001
F183.15357142857141
tp21
a(F161.93110247880784
F183.64988689772997
tp22
a(F161.89845916657953
F183.82243011950814
tp23
a(F161.80628683693516
F184.30962671905698
tp24
a(F161.7153399002419
F184.7903462415785
tp25
a(F160.6671774639106
F190.33063340504401
tp26
a(F160.58919662824704
F190.74281782212284
tp27
a(F160.51195574394063
F191.15109106774233
tp28
a(F160.26241457786779
F192.47009437412734
tp29
a(F160.18806818181818
F192.86306818181819
tp30
a(F160.15336741830046
F193.04648650326899
tp31
a(F160.11433376136034
F193.25280726138104
tp32
a(F160.0799127233056
F193.43474703395609
tp33
a(F160.00703773905445
F193.81994337928353
tp34
a(F159.70433564632037
F195.4199401551638
tp35
aa(lp36
(I50
I49
tp37
a(F94.613456911020876
F97.944949000369164
tp38
a(F94.64392782397195
F97.820295265569314
tp39
a(F94.585881218940273
F98.057758649789761
tp40
a(F94.569554742317663
F98.124548781427762
tp41
a(F94.695708712613794
F97.608464357489055
tp42
a(F94.506044100385466
F98.384365043877608
tp43
a(F94.758372898755283
F97.352110868728346
tp44
a(F94.774482758620692
F97.286206896551718
tp45
a(F94.453559131973762
F98.599076278289147
tp46
a(F94.83176245426651
F97.051880868909706
tp47
a(F94.882863487747983
F96.842831186485512
tp48
a(F94.898045983835374
F96.780720975218969
tp49
a(F94.942929146388025
F96.597108037503588
tp50
a(F94.944710314648816
F96.589821440072996
tp51
a(F94.960610999306837
F96.524773184653867
tp52
a(F95.082582811784448
F96.025797588154475
tp53
a(F95.126893590923032
F95.844526218951245
tp54
a(F95.231456831450203
F95.416767507703668
tp55
a(F95.264717272004418
F95.280702069072802
tp56
a(F95.264785662194697
F95.280422291021694
tp57
a(F95.308543633184627
F95.101412409699293
tp58
a(F95.368179035132258
F94.857449401731685
tp59
a(F95.411814080369325
F94.678942398489141
tp60
a(F95.44466674512573
F94.544545133576548
tp61
a(F95.5468706996202
F94.126438047008321
tp62
a(F95.580413200998578
F93.989218723187619
tp63
a(F95.589980092678729
F93.950081439041583
tp64
a(F95.622438886694326
F93.817295463523209
tp65
a(F95.723427905651434
F93.404158567789565
tp66
a(F95.756575102279356
F93.268556399766226
tp67
a(F95.765206823419632
F93.233244813283335
tp68
a(F95.786904294619958
F93.144482431100201
tp69
a(F95.823993237100552
F92.992754939134088
tp70
a(F95.930688714062924
F92.556273442469859
tp71
a(F95.937397433812265
F92.528828679858862
tp72
a(F95.939221272554619
F92.521367521367523
tp73
a(F95.960669975186107
F92.43362282878411
tp74
a(F95.987573409746091
F92.323563323765995
tp75
a(F95.997335322958861
F92.283628224259218
tp76
a(F96.109457179716188
F91.824947901161053
tp77
a(F96.111260553364957
F91.817570463507039
tp78
a(F96.126876569580844
F91.75368676080565
tp79
a(F96.132468958540898
F91.730808805969048
tp80
a(F96.15907196443456
F91.621978327313144
tp81
a(F96.16872513676708
F91.582488076861978
tp82
a(F96.279608332427387
F91.128875003706128
tp83
a(F96.296836982968372
F91.05839416058393
tp84
a(F96.32868104775909
F90.928122986440115
tp85
a(F96.351076327731704
F90.836505932006688
tp86
a(F96.407147447791331
F90.607124077217279
tp87
a(F96.461766977569326
F90.383680546307289
tp88
a(F96.464960365539554
F90.370616686429088
tp89
a(F96.518622628250171
F90.15108924806745
tp90
a(F96.521277316455354
F90.140229159955396
tp91
a(F96.547724167098664
F90.032037498232739
tp92
a(F96.574101841300305
F89.9241288310442
tp93
a(F96.628149347364158
F89.703025397146604
tp94
a(F96.655196827115091
F89.592376616347366
tp95
a(F96.684414336420247
F89.472850441917217
tp96
a(F96.687041564792182
F89.462102689486557
tp97
a(F96.713215432444827
F89.355027776362064
tp98
a(F96.739321888920813
F89.248228636233023
tp99
a(F96.779716788496415
F89.082976774332892
tp100
a(F96.792816953104364
F89.029385191845762
tp101
a(F96.819589624467667
F88.919860627177698
tp102
a(F96.830682340589959
F88.874481333950229
tp103
a(F96.851112227791177
F88.790904522672491
tp104
a(F96.854760347657447
F88.775980395946789
tp105
a(F96.877022472395581
F88.684908067472634
tp106
a(F96.942858678707736
F88.415578132559261
tp107
a(F96.982335906220442
F88.25408038364364
tp108
a(F96.984229508412213
F88.246333829222749
tp109
a(F96.984324526963476
F88.245945116967619
tp110
a(F96.993318989921875
F88.209149586683282
tp111
a(F97.017159666612201
F88.111619545677399
tp112
a(F97.045051376553147
F87.997517095918923
tp113
a(F97.104397097740787
F87.754739145605839
tp114
a(F97.14536769475734
F87.587132157810942
tp115
a(F97.145461797048597
F87.58674719389208
tp116
a(F97.15436958851194
F87.550306228814748
tp117
a(F97.177981125383297
F87.453713577977453
tp118
a(F97.205605849582184
F87.340703342618383
tp119
a(F97.209579926782283
F87.324445754072471
tp120
a(F97.304971632068742
F86.934206959718736
tp121
a(F97.30506484984241
F86.933825614281034
tp122
a(F97.339618675878228
F86.792469053225403
tp123
a(F97.364646313537463
F86.690083262801323
tp124
a(F97.366710920851091
F86.681637141972772
tp125
a(F97.368583409649588
F86.673976960524413
tp126
a(F97.497425241665923
F86.146896738639441
tp127
a(F97.5242713384431
F86.037071797278273
tp128
a(F97.526126855627666
F86.029481045159542
tp129
a(F97.653813639269359
F85.507126021170791
tp130
a(F97.680422224560033
F85.398272717709006
tp131
a(F97.685860443013894
F85.376025460397699
tp132
a(F97.840604751619878
F84.742980561555072
tp133
a(F97.920770417483283
F84.415030110295618
tp134
a(F97.949147393522992
F84.298942481042275
tp135
a(F97.994039090903215
F84.115294628123166
tp136
a(F98.073540372670806
F83.790062111801248
tp137
a(F98.101684501561607
F83.674927039066091
tp138
a(F98.122737148288564
F83.588802575183124
tp139
a(F98.18598925096353
F83.330043973331044
tp140
a(F98.225071158813179
F83.17016344121879
tp141
a(F98.252990855540162
F83.055946500062959
tp142
a(F98.273876404494388
F82.970505617977523
tp143
a(F98.336630504148047
F82.713784301212513
tp144
a(F98.423835754639782
F82.357035549200901
tp145
a(F98.486110114884241
F82.102276802746275
tp146
a(F98.854249807122343
F80.596250789044987
tp147
a(F99
F80
tp148
a(F100.10197111475178
F80
tp149
a(F106.1132220958947
F80
tp150
a(F106.28170203205144
F80
tp151
a(F107.46341463414633
F80
tp152
a(F107.63819095477386
F80
tp153
a(F108.86461021322212
F80
tp154
a(F109.04607956506251
F80
tp155
a(F111.41128142998824
F80
tp156
a(F111.93326582494203
F80
tp157
a(F112.96874999999999
F80
tp158
a(F113.51219512195124
F80
tp159
a(F114.59080479117421
F80
tp160
a(F115.15717749396322
F80
tp161
a(F127.92104432885421
F80
tp162
a(F130.24822695035459
F80
tp163
a(F132.15768501814003
F80
tp164
a(F132.69910097695464
F80
tp165
a(F134.71287128712871
F80
tp166
a(F137.31086386288789
F80
tp167
a(F137.41163564638214
F80
tp168
a(F140.16030534351145
F80
tp169
a(F143.18046377948812
F80
tp170
a(F147.21619599675137
F80
tp171
a(F150.68376068376068
F80
tp172
a(F151.04974490449126
F80
tp173
a(F154.38413808805734
F80
tp174
a(F154.53127314804152
F80
tp175
a(F154.77519379844961
F80
tp176
a(F158.5
F80
tp177
a(F158.76128963676487
F80
tp178
a(F158.781360731456
F80
tp179
a(F162.75662371855256
F80
tp180
a(F163.05882352941177
F80
tp181
a(F167.66011034268888
F80
tp182
a(F169.85688947029524
F80
tp183
a(F196.01152187742986
F85.210857425602597
tp184
a(F196.51874721429479
F83.785142965225475
tp185
a(F197.11635309807781
F82.105385886484044
tp186
a(F197.62612480914791
F80.672514049962643
tp187
a(F198.13723605298131
F79.235877040268747
tp188
a(F198.60736639974488
F77.91442957909544
tp189
a(F198.72620195001048
F77.580405329700284
tp190
a(F198.81343973231841
F77.335196428077964
tp191
a(F199.12134884825457
F76.469722156257419
tp192
a(F199.24055829228243
F76.134646962233177
tp193
a(F199.32807415155742
F75.888656438865652
tp194
a(F199.48312937802618
F75.452825532034538
tp195
a(F199.63698911550489
F75.020354918580807
tp196
a(F199.75659817876419
F74.684156470500596
tp197
a(F199.84441103628589
F74.437331141250468
tp198
a(F200
F74
tp199
a(F202.34710006361115
F74
tp200
a(F209.84077449787603
F74
tp201
a(F212.50000000000003
F74
tp202
a(F216.80626496776392
F74
tp203
a(F217.76565487217388
F74
tp204
a(F224.06458341035679
F74
tp205
a(F249.3217355142778
F76.838231217077904
tp206
a(F249.30060444194544
F76.664956423952773
tp207
a(F249.16556304623026
F75.557616979088152
tp208
a(F249.07028556299636
F74.77634161657015
tp209
a(F249.04926423704092
F74.60396674373554
tp210
aa(lp211
(I71
I60
tp212
a(F96.189881195005981
F91.495940565884624
tp213
a(F96.200493923441869
F91.45252485864691
tp214
a(F96.249954977348807
F91.250184183573083
tp215
a(F96.253374420019924
F91.236195554463919
tp216
a(F96.078827271580195
F91.950252070808332
tp217
a(F96.320303498909141
F90.962394777189857
tp218
a(F96.369020501138948
F90.763097949886102
tp219
a(F96.372388737511358
F90.749318801089913
tp220
a(F96.379333672250368
F90.720907704430275
tp221
a(F96.486320760573349
F90.283233252199935
tp222
a(F96.489639591094644
F90.26965621824921
tp223
a(F96.496482748719913
F90.241661482509443
tp224
a(F96.611933766748791
F89.769361863300418
tp225
a(F96.632579677778693
F89.684901318178092
tp226
a(F96.655149687884887
F89.592569458652761
tp227
a(F96.674946519969239
F89.511582418307682
tp228
a(F96.711002403146821
F89.364081078035767
tp229
a(F96.746102449888639
F89.220489977728292
tp230
a(F96.768357305071916
F89.129447388342157
tp231
a(F96.787878787878782
F89.049586776859499
tp232
a(F96.823435778131511
F88.904126362189288
tp233
a(F96.834750190974276
F88.857840127832517
tp234
a(F96.858053381866839
F88.762508892362945
tp235
a(F96.880003996638592
F88.6727109228421
tp236
a(F96.899259659346399
F88.593937757219294
tp237
a(F96.918324708130427
F88.51594437583006
tp238
a(F96.934335006344071
F88.45044770131976
tp239
a(F96.945496842804914
F88.404785643070781
tp240
a(F97.027954590196202
F88.067458494651873
tp241
a(F97.054767523252067
F87.957769223059714
tp242
a(F97.127808856649438
F87.658963768252278
tp243
a(F97.136146903626056
F87.624853576075211
tp244
a(F97.191540860137323
F87.398241935801892
tp245
a(F97.203618914277456
F87.348831714319488
tp246
a(F97.234718826405867
F87.221604801066903
tp247
a(F97.297645854657119
F86.964176049129989
tp248
a(F97.309572539617562
F86.915385065200866
tp249
a(F97.340284426588994
F86.789745527590497
tp250
a(F97.35434395985996
F86.732229255118369
tp251
a(F97.402433986012923
F86.535497329947148
tp252
a(F97.414214470878505
F86.487304437315217
tp253
a(F97.441389403795426
F86.376134257200562
tp254
a(F97.4464602550687
F86.355389865628069
tp255
a(F97.458440357546493
F86.306380355491626
tp256
a(F97.490364511203822
F86.175781545075282
tp257
a(F97.544440015942598
F85.954563571143879
tp258
a(F97.544828282997088
F85.952975205921007
tp259
a(F97.549450549450555
F85.934065934065941
tp260
a(F97.56128841311272
F85.885638309993425
tp261
a(F97.570721805472829
F85.847047159429309
tp262
a(F97.592835348626963
F85.756582664707878
tp263
a(F97.6462779155258
F85.537953981939921
tp264
a(F97.646661665416346
F85.536384096023994
tp265
a(F97.651230185645545
F85.517694695086433
tp266
a(F97.672254819782069
F85.431684828164293
tp267
a(F97.694113218212138
F85.34226410731398
tp268
a(F97.705602559118915
F85.29526225814989
tp269
a(F97.747323785742907
F85.124584512869944
tp270
a(F97.772626799364645
F85.021072184417349
tp271
a(F97.801757183055244
F84.901902432955808
tp272
a(F97.805599034032468
F84.886185769867183
tp273
a(F97.815941136994311
F84.843877166841494
tp274
a(F97.832915686761183
F84.774435826886105
tp275
a(F97.890265992629224
F84.539820939244095
tp276
a(F97.900687070580886
F84.497189256714549
tp277
a(F97.904486804167945
F84.481644892040208
tp278
a(F97.914715719063551
F84.439799331103686
tp279
a(F97.93150509386814
F84.371115525084889
tp280
a(F97.942196809408358
F84.327376688783957
tp281
a(F97.988235294117644
F84.139037433155082
tp282
a(F97.998544609116507
F84.096862962705217
tp283
a(F98.01242324941019
F84.040086706958292
tp284
a(F98.014272041560048
F84.032523466345239
tp285
a(F98.029033766755504
F83.972134590545693
tp286
a(F98.039611964430065
F83.92886014551334
tp287
a(F98.061004973925108
F83.84134328848819
tp288
a(F98.078551808343491
F83.769560784049347
tp289
a(F98.085165029938608
F83.742506695705671
tp290
a(F98.103587492661816
F83.667142075474388
tp291
a(F98.110929686702718
F83.637105827125225
tp292
a(F98.136006490231807
F83.53451890359716
tp293
a(F98.157178660938058
F83.447905477980669
tp294
a(F98.174545247191645
F83.376860352397784
tp295
a(F98.193570527126695
F83.299029661754432
tp296
a(F98.197901686345944
F83.281311283130236
tp297
a(F98.199325138587611
F83.275488069414322
tp298
a(F98.206592625030737
F83.245757443056092
tp299
a(F98.252374228661765
F83.058469064565529
tp300
a(F98.263226191874978
F83.014074669602351
tp301
a(F98.269566750619603
F82.988136020192513
tp302
a(F98.288402240261789
F82.911081744383623
tp303
a(F98.29269032453746
F82.893539581437679
tp304
a(F98.294099630669166
F82.887774238171616
tp305
a(F98.354528616599254
F82.640564750275743
tp306
a(F98.357371063441349
F82.628936558649016
tp307
a(F98.38230196362278
F82.52694651245227
tp308
a(F98.386548457404686
F82.509574492435362
tp309
a(F98.439810164596238
F82.291685690288119
tp310
a(F98.443598963062243
F82.276186060199905
tp311
a(F98.44779228697729
F82.259031553274724
tp312
a(F98.450607647742999
F82.247514168324102
tp313
a(F98.532270311313596
F81.913439635535312
tp314
a(F98.536023850273281
F81.898084248882014
tp315
a(F98.540178193573809
F81.881089208107113
tp316
a(F98.62388065855508
F81.538670033183763
tp317
a(F98.627600168334126
F81.523453856814953
tp318
a(F98.654452260102644
F81.413604390489155
tp319
a(F98.74497373664191
F81.043289259192179
tp320
a(F98.78826963036019
F80.86616969398105
tp321
a(F98.79224391035487
F80.849911275821029
tp322
a(F98.803524537795397
F80.803763254473381
tp323
a(F98.834713543379351
F80.676171867993588
tp324
a(F98.877643108242822
F80.500550920824807
tp325
a(F98.881584006151485
F80.484429065743939
tp326
a(F98.892770105605194
F80.43866774979692
tp327
a(F98.906558352769494
F80.38226128412478
tp328
a(F98.911643629285152
F80.361457880197122
tp329
a(F98.96627582627417
F80.137962528878404
tp330
a(F98.970184539349134
F80.121972339026314
tp331
a(F98.981279503615283
F80.076583848846568
tp332
a(F98.994955863808315
F80.020635102602313
tp333
a(F99
F80
tp334
a(F99.56555528892585
F80
tp335
a(F99.600425978025044
F80
tp336
a(F107.1252362960208
F80
tp337
a(F107.25460613519579
F80
tp338
a(F107.99346405228758
F80
tp339
a(F108.12765957446808
F80
tp340
a(F108.89441696004836
F80
tp341
a(F109.0337416842036
F80
tp342
a(F110.9238773072764
F80
tp343
a(F111.1498223762998
F80
tp344
a(F111.94117647058823
F80
tp345
a(F112.17647058823529
F80
tp346
a(F113.00099691141725
F80
tp347
a(F113.24628265650932
F80
tp348
a(F122.36385823846413
F80
tp349
a(F123.92307692307692
F80
tp350
a(F125.5670600819731
F80
tp351
a(F125.9108020785642
F80
tp352
a(F127.66666666666666
F80
tp353
a(F129.05818958500453
F80
tp354
a(F129.52493510397343
F80
tp355
a(F131
F80
tp356
a(F133.06192652715717
F80
tp357
a(F136.3234006383681
F80
tp358
a(F138.73584905660377
F80
tp359
a(F138.75595448235691
F80
tp360
a(F141.31744089137089
F80
tp361
a(F141.33898305084745
F80
tp362
a(F144.11032850854755
F80
tp363
a(F144.47176638681375
F80
tp364
a(F145.36696384428217
F80
tp365
a(F147.48148148148152
F80
tp366
a(F148.44680851063831
F80
tp367
a(F150.73054488019847
F80
tp368
a(F151.77479446390925
F80
tp369
a(F171.26446938881296
F80
tp370
aa(lp371
(I94
I74
tp372
a(F98.448121129782322
F82.25768628725416
tp373
a(F98.441427323194404
F82.285070041477411
tp374
a(F98.440536167494159
F82.288715678433007
tp375
a(F98.463579883651576
F82.194445930516267
tp376
a(F98.47359285891396
F82.153483758988344
tp377
a(F98.474464579901152
F82.149917627677098
tp378
a(F98.48215986594731
F82.118436912033715
tp379
a(F98.485492185465333
F82.104804695823631
tp380
a(F98.496137339055792
F82.061256340226294
tp381
a(F98.505935533455116
F82.021172817683592
tp382
a(F98.506281446685648
F82.019757718104159
tp383
a(F98.506788617383165
F82.017682928887027
tp384
a(F98.514319809069207
F81.986873508353227
tp385
a(F98.517581308701395
F81.97353100985795
tp386
a(F98.528001192874456
F81.930904210968151
tp387
a(F98.53332397220791
F81.909129204604028
tp388
a(F98.537932003371736
F81.890278168024722
tp389
a(F98.545802294687377
F81.858081521733482
tp390
a(F98.548995840239087
F81.845017017203716
tp391
a(F98.550572367750334
F81.838567586475875
tp392
a(F98.562993756547868
F81.787752814122371
tp393
a(F98.564412445358698
F81.78194908716894
tp394
a(F98.568925645355137
F81.763485996274454
tp395
a(F98.571323974704015
F81.753674648938102
tp396
a(F98.575290558858896
F81.737447713759067
tp397
a(F98.581307293742526
F81.712833798326031
tp398
a(F98.593476471908431
F81.663050796738233
tp399
a(F98.594866482540397
F81.657364389607437
tp400
a(F98.601638672675136
F81.629659975419912
tp401
a(F98.605525569481287
F81.61375903394017
tp402
a(F98.606711836202052
F81.608906124627993
tp403
a(F98.608353478047633
F81.602190317077884
tp404
a(F98.611421820812552
F81.589638005766844
tp405
a(F98.623348753808216
F81.54084600714819
tp406
a(F98.631349553687116
F81.508115462189096
tp407
a(F98.63515989499119
F81.492527702308763
tp408
a(F98.636322836412603
F81.487770214675749
tp409
a(F98.637932229228738
F81.481186334973316
tp410
a(F98.665357537527996
F81.368991891930904
tp411
a(F98.666935934908352
F81.362534811738556
tp412
a(F98.671004650715076
F81.345890065256526
tp413
a(F98.677147896088073
F81.32075860691242
tp414
a(F98.683005647413452
F81.296795078763154
tp415
a(F98.683502177897836
F81.294763817690651
tp416
a(F98.697706073638813
F81.236656971477615
tp417
a(F98.699378881987585
F81.229813664596278
tp418
a(F98.70540677109652
F81.205154118241538
tp419
a(F98.711154985192493
F81.181638696939785
tp420
a(F98.711642251349261
F81.179645335389353
tp421
a(F98.725582489997649
F81.122617086373268
tp422
a(F98.727224420288209
F81.115900098820944
tp423
a(F98.733141344345043
F81.09169450040666
tp424
a(F98.738784183176563
F81.068610159732259
tp425
a(F98.739262536666658
F81.066653259090927
tp426
a(F98.752949103717071
F81.010662757521089
tp427
a(F98.806324304176002
F80.792309664734518
tp428
a(F98.832271540469975
F80.686161879895565
tp429
a(F98.838376608919774
F80.661186599873659
tp430
a(F98.857780724271549
F80.58180612798003
tp431
a(F98.863784003248071
F80.557247259439706
tp432
a(F98.863842495507299
F80.557007972924708
tp433
a(F98.867387150318493
F80.542507112333453
tp434
a(F98.868610315328212
F80.537503255475514
tp435
a(F98.871971598529399
F80.52375255147065
tp436
a(F98.873678465593883
F80.516769913479578
tp437
a(F98.888773016377101
F80.455019478457316
tp438
a(F98.888830555190964
F80.454784092400573
tp439
a(F98.892317514364763
F80.440519259416902
tp440
a(F98.893520808309191
F80.435596693280573
tp441
a(F98.896827586206896
F80.422068965517241
tp442
a(F98.898506831948168
F80.415199323848427
tp443
a(F98.913415394640438
F80.354209749198219
tp444
a(F98.916846736115346
F80.340172443164477
tp445
a(F98.917409275522402
F80.337871145590199
tp446
a(F98.918030874214864
F80.335328241848288
tp447
a(F98.921285107450018
F80.322015469522654
tp448
a(F98.922937724795872
F80.315254762198734
tp449
a(F98.941542972329117
F80.239142385926328
tp450
a(F98.952403751223258
F80.194711926813952
tp451
a(F98.965304024972937
F80.141938079656143
tp452
a(F98.975999594073471
F80.098183478790332
tp453
a(F98.976769169670916
F80.09503521498263
tp454
a(F98.995588298192075
F80.018047871032451
tp455
a(F98.997705199993405
F80.009387818208779
tp456
a(F98.998087400016601
F80.007824272659391
tp457
a(F98.999241834209982
F80.003101587322803
tp458
a(F157.37476099426388
F150.04971319311665
tp459
a(F99.050708500301496
F80
tp460
a(F99.082802547770697
F80
tp461
a(F99.092250922509223
F80
tp462
a(F99.09395973154362
F80
tp463
a(F99.094020681398817
F80
tp464
a(F99.10252445462649
F80
tp465
a(F99.154098360655738
F80
tp466
a(F99.186744677634991
F80
tp467
a(F99.196356309731797
F80
tp468
a(F99.19809467767972
F80
tp469
a(F99.198156682027644
F80
tp470
a(F99.238778237979204
F80
tp471
a(F99.259279943624648
F80
tp472
a(F99.304112897088743
F80
tp473
a(F99.345454545454544
F80
tp474
a(F99.454048781705382
F80
tp475
a(F99.49124523112296
F80
tp476
a(F99.564120225418762
F80
tp477
a(F99.602523659305987
F80
tp478
a(F99.608095354337337
F80
tp479
a(F99.676767676767682
F80
tp480
a(F99.715899879049516
F80
tp481
a(F99.721577726218101
F80
tp482
a(F99.757132624188287
F80
tp483
a(F99.791567138659545
F80
tp484
a(F99.810587481902118
F80
tp485
a(F99.837245336665376
F80
tp486
a(F99.839313911341492
F80
tp487
a(F99.873493975903614
F80
tp488
a(F99.901191553020482
F80
tp489
a(F99.908416100243812
F80
tp490
a(F99.927999999999997
F80
tp491
a(F99.957295373665488
F80
tp492
a(F99.992156085787897
F80
tp493
a(F100.01229068640346
F80
tp494
a(F100.0204081632653
F80
tp495
a(F100.02777777777777
F80
tp496
a(F100.04775581938276
F80
tp497
a(F100.07764324526765
F80
tp498
a(F100.13375796178345
F80
tp499
a(F100.14204154617798
F80
tp500
a(F100.14956216084461
F80
tp501
a(F100.16699471906166
F80
tp502
a(F100.20599881282847
F80
tp503
a(F100.25773447546412
F80
tp504
a(F100.27932409730577
F80
tp505
a(F100.29166666666667
F80
tp506
a(F100.31659527061109
F80
tp507
a(F100.33149171270718
F80
tp508
a(F100.40637450199203
F80
tp509
a(F100.41898105911403
F80
tp510
a(F100.42646929343846
F80
tp511
a(F100.44444444444444
F80
tp512
a(F100.4596614735387
F80
tp513
a(F100.49757484969749
F80
tp514
a(F100.53616738861572
F80
tp515
a(F100.55670103092784
F80
tp516
a(F100.56606768371306
F80
tp517
a(F100.57506992001916
F80
tp518
a(F100.60821094664257
F80
tp519
a(F100.62937062937063
F80
tp520
a(F100.68528443795741
F80
tp521
a(F100.68981061486892
F80
tp522
a(F100.69938650306749
F80
tp523
a(F100.71354925498906
F80
tp524
a(F100.74247491638796
F80
tp525
a(F100.7641114571411
F80
tp526
a(F100.8212927756654
F80
tp527
a(F100.83571622242057
F80
tp528
a(F100.84311427386672
F80
tp529
a(F100.8502024291498
F80
tp530
a(F100.85590777976704
F80
tp531
a(F100.87979085574118
F80
tp532
a(F100.96042929030259
F80
tp533
a(F100.98275862068965
F80
tp534
a(F100.99001208578582
F80
tp535
a(F100.99585062240664
F80
tp536
a(F100.99691665229345
F80
tp537
a(F101.125691693661
F80
tp538
a(F101.13011920366945
F80
tp539
a(F101.13909547311519
F80
tp540
a(F101.14018691588785
F80
tp541
a(F101.26747581584655
F80
tp542
a(F101.27659574468085
F80
tp543
a(F101.27938781058585
F80
tp544
a(F101.28690828529264
F80
tp545
a(F101.41732283464567
F80
tp546
a(F101.4266688588437
F80
tp547
a(F101.42953020134229
F80
tp548
a(F101.57092123285939
F80
tp549
a(F101.58343762979166
F80
tp550
a(F101.60033521667027
F80
tp551
a(F101.6601572885467
F80
tp552
a(F101.75862068965517
F80
tp553
a(F101.81999999999999
F80
tp554
a(F101.89784739258647
F80
tp555
a(F101.92105352033012
F80
tp556
a(F101.92441621071835
F80
tp557
a(F101.98406444207963
F80
tp558
a(F102.06399999999999
F80
tp559
a(F102.09128630705393
F80
tp560
a(F102.12493324075834
F80
tp561
a(F102.23467978568371
F80
tp562
a(F102.26271872632155
F80
tp563
a(F102.29729729729731
F80
tp564
a(F102.47449555234928
F80
tp565
a(F104.95804217693433
F80
tp566
a(F104.97573315605344
F80
tp567
a(F105.22302158273381
F80
tp568
a(F105.24137931034483
F80
tp569
a(F105.49810318587433
F80
tp570
a(F105.5171699636667
F80
tp571
a(F106.28620720182879
F80
tp572
a(F106.43606719101594
F80
tp573
a(F106.60431654676259
F80
tp574
a(F106.7605633802817
F80
tp575
a(F106.93607831549905
F80
tp576
a(F107.0991624889418
F80
tp577
a(F109.15980449696374
F80
tp578
aa(lp579
(I112
I90
tp580
a(F156.22396499501352
F151.83647540247901
tp581
a(F156.33436280884266
F151.66506827048113
tp582
a(F156.43444066204955
F151.50968423523886
tp583
a(F156.49541882075459
F151.41500762040732
tp584
a(F156.52035006599098
F151.37629858175086
tp585
a(F155.99147710066376
F152.19744344896941
tp586
a(F156.59644588109569
F151.25814981619351
tp587
a(F156.61589373297434
F151.22795446722404
tp588
a(F155.89059861110022
F152.35407057750231
tp589
a(F156.77464430800663
F150.98147331125284
tp590
a(F156.87395080023677
F150.82728691542184
tp591
a(F156.93446150026892
F150.7333360916877
tp592
a(F156.95920217588395
F150.69492293744332
tp593
a(F157.03471831551877
F150.57767419432614
tp594
a(F157.05401849948612
F150.5477081192189
tp595
a(F157.37019520041014
F150.05680218883691
tp596
a(F157.39475237551383
F150.01867394328116
tp597
a(F157.46971037198597
F149.9022917908639
tp598
a(F157.48886838040767
F149.87254646199858
tp599
a(F157.50141650078791
F149.85306385403982
tp600
a(F157.93302458140363
F149.18293551834699
tp601
a(F158.22813961539072
F148.72473059715654
tp602
a(F158.3616033671789
F148.51751056148538
tp603
a(F158.65470256879109
F148.06243548529804
tp604
a(F158.93858796904826
F147.62166604805662
tp605
a(F158.95965417158556
F147.58895799674877
tp606
a(F158.98759523239454
F147.54557582338742
tp607
a(F159.07843145594916
F147.40454063418417
tp608
a(F159.25905969996037
F147.12409151848257
tp609
a(F159.29542919829851
F147.06762308685234
tp610
a(F159.36048292638975
F146.96661861428956
tp611
a(F159.38141470180304
F146.93411927877946
tp612
a(F159.4091778202677
F146.89101338432124
tp613
a(F159.67893451020569
F146.47218062889115
tp614
a(F159.71507810731265
F146.41606293864612
tp615
a(F159.77972947668439
F146.31568318093738
tp616
a(F159.80053225464596
F146.28338413094446
tp617
a(F159.8281246258158
F146.2405433441281
tp618
a(F160.03294430198042
F145.92253384692515
tp619
a(F160.09624305580627
F145.82425420282712
tp620
a(F160.13217001256427
F145.76847287522918
tp621
a(F160.44816010329245
F145.27785668173013
tp622
a(F160.86100408555637
F144.63686207768879
tp623
a(F161.10949923429112
F144.25104066254801
tp624
a(F161.38093485183816
F143.82960115109336
tp625
a(F161.51875000000001
F143.61562499999999
tp626
a(F161.61998682905303
F143.45844150225975
tp627
a(F161.78877648406186
F143.19637335369345
tp628
a(F161.92589080408874
F142.98348533049378
tp629
a(F162.02661909284595
F142.82709140847601
tp630
a(F162.13913426008651
F142.6523968067078
tp631
a(F162.19457269395645
F142.56632134359393
tp632
a(F162.28671484471221
F142.42325853057838
tp633
a(F162.41578304344858
F142.22286316938246
tp634
a(F162.43126230451486
F142.19882957983219
tp635
a(F162.54324225623319
F142.0249659705853
tp636
a(F162.62137815557639
F141.90364970581561
tp637
a(F162.64974909556685
F141.859600088462
tp638
a(F162.69013078605545
F141.79690220059814
tp639
a(F162.81860300757785
F141.59743217244494
tp640
a(F162.94548215928714
F141.40043559479102
tp641
a(F163.02326663564449
F141.27966496044672
tp642
a(F163.051510759282
F141.23581224216747
tp643
a(F163.05636419436823
F141.22827664558616
tp644
a(F163.09171266685024
F141.17339349094306
tp645
a(F163.21961855033865
F140.97480277710577
tp646
a(F163.42339767193332
F140.65840887778774
tp647
a(F163.45152143948368
F140.61474302817012
tp648
a(F163.45635423444404
F140.60723947810007
tp649
a(F163.4896958449541
F140.55547224072916
tp650
a(F163.73644565638074
F140.17236069140884
tp651
a(F163.85468529916142
F139.9887780881441
tp652
a(F163.88789237668161
F139.93721973094171
tp653
a(F163.95793923898094
F139.82846276052962
tp654
a(F164.08142810407816
F139.63673004893127
tp655
a(F164.13366451016637
F139.55562615526802
tp656
a(F164.28452683304619
F139.32139254869145
tp657
a(F164.35430743243245
F139.21304898648648
tp658
a(F164.4544691976287
F139.05753466683967
tp659
a(F164.47733310107566
F139.02203544832992
tp660
a(F164.52937595833066
F138.94123206469715
tp661
a(F164.68367734864836
F138.70165885341441
tp662
a(F164.7492169930579
F138.59989993183115
tp663
a(F164.84902309058614
F138.4449378330373
tp664
a(F164.87180653709237
F138.40956353451446
tp665
a(F164.89458963258403
F138.37418978098799
tp666
a(F165.03476546504413
F138.15654835690515
tp667
a(F165.07743696573522
F138.09029523741111
tp668
a(F165.24222669699398
F137.83443749677252
tp669
a(F165.2757566565337
F137.78237782275033
tp670
a(F165.28764251081117
F137.76392347005634
tp671
a(F165.36453619509328
F137.64453590761835
tp672
a(F165.42736143108823
F137.54699146225775
tp673
a(F165.46989587050717
F137.48095114842309
tp674
a(F165.66759098786829
F137.17400346620451
tp675
a(F165.6794400596217
F137.15560622321894
tp676
a(F165.7560975609756
F137.03658536585368
tp677
a(F165.76406245507954
F137.02421881974493
tp678
a(F165.80081196423225
F136.96716037132364
tp679
a(F165.81873210959873
F136.93933698772827
tp680
a(F166.05825146252377
F136.56745167660782
tp681
a(F166.14650394953412
F136.43042807835491
tp682
a(F166.15444617784709
F136.41809672386893
tp683
a(F166.19109153612828
F136.36119998337972
tp684
a(F166.20090136558625
F136.34596893237926
tp685
a(F166.54375945407625
F135.81363663709215
tp686
a(F166.58030840263163
F135.75688958538774
tp687
a(F166.59009254218836
F135.74169842133915
tp688
a(F166.59112214550458
F135.74009982671657
tp689
a(F166.97830493727744
F135.13894759738503
tp690
a(F166.97933205584451
F135.13735286066247
tp691
a(F166.98708227185338
F135.12531963054343
tp692
a(F167.00204556383869
F135.10208715088206
tp693
a(F167.36664444912259
F134.53599940794123
tp694
a(F167.37437754640109
F134.52399275690357
tp695
a(F167.38930787589499
F134.50081145584727
tp696
a(F167.76085721838814
F133.92393221355525
tp697
a(F167.77575767082647
F133.90079730055891
tp698
a(F168.00991477595448
F133.53723758470224
tp699
a(F168.39522546419099
F132.93899204244033
tp700
a(F168.61560741169714
F132.59682007131235
tp701
a(F168.64037509780093
F132.55836497973013
tp702
a(F168.71407710984084
F132.443932908405
tp703
a(F168.77992996154225
F132.34168769128968
tp704
a(F169
F132
tp705
a(F169.00602006688962
F131.94782608695652
tp706
a(F169.02391128566478
F131.7927688575719
tp707
a(F169.05369346458025
F131.5346566403046
tp708
a(F169.09299657103867
F131.19402971766488
tp709
a(F169.09894890824035
F131.14244279525019
tp710
a(F169.11663943636518
F130.98912488483518
tp711
a(F169.14608952287261
F130.73389080177077
tp712
a(F169.23747106426219
F129.9419174430609
tp713
a(F170.30935002375631
F120.6522997941119
tp714
a(F170.33963337037372
F120.38984412342788
tp715
a(F170.39000235793446
F119.95331289790144
tp716
a(F170.42005704849123
F119.69283891307612
tp717
a(F170.47005142599471
F119.25955430804592
tp718
a(F170.49988598457651
F119.00098813367015
tp719
a(F170.72272688782567
F117.06970030551101
tp720
a(F170.80048044841851
F116.39583611370612
tp721
a(F170.87774244456386
F115.72623214711317
tp722
a(F170.95318745308251
F115.07237540661833
tp723
a(F171.02953353574387
F114.41070935688656
tp724
a(F171.1054463196906
F113.75279856268162
tp725
a(F171.50381382137851
F110.30028021471955
tp726
a(F171.57740278796771
F109.66250917094644
tp727
a(F171.65068804632324
F109.02737026519877
tp728
a(F171.82393090874282
F107.52593212422882
tp729
a(F171.83573785213517
F107.4236052814953
tp730
a(F171.89631013545073
F106.89864549276038
tp731
a(F171.90807799442896
F106.7966573816156
tp732
a(F171.96845596093249
F106.27338167191834
tp733
a(F171.9801872714942
F106.171710313717
tp734
a(F172.07837172776229
F105.32077835939356
tp735
aa(lp736
(I131
I103
tp737
a(F124.71162504861235
F214.24728685835112
tp738
a(F127.65407164254498
F214.20956318406996
tp739
a(F128.7671627954885
F214.1952927846732
tp740
a(F129.87952154389427
F214.18103177507828
tp741
a(F129.88815372714987
F214.18092110606219
tp742
a(F129.88815372714987
F214.18092110606219
tp743
a(F130.26382171185173
F214.17610484984806
tp744
a(F131
F191
tp745
a(F131
F191
tp746
a(F131.29574599805431
F190.54081542407357
tp747
a(F131.8665741816001
F189.65452956014718
tp748
a(F131.8665741816001
F189.65452956014718
tp749
a(F132.15340679111074
F189.20918419274915
tp750
a(F132.90339306927459
F188.04473181349471
tp751
a(F133.71373503753298
F186.78656928383037
tp752
a(F134.50095230242292
F185.56431089886968
tp753
a(F135.16335986017825
F184.53583600656535
tp754
a(F135.91042584434655
F183.37591776798826
tp755
a(F136.63740994659915
F182.24717929343814
tp756
a(F138.50281515918431
F179.35089225284543
tp757
a(F139.0740087854976
F178.46403899093795
tp758
a(F139.16333777185974
F178.32534398579671
tp759
a(F139.72056168505517
F177.46018054162488
tp760
a(F139.80772798505279
F177.32484339162852
tp761
a(F140.1652472993521
F176.76974761416386
tp762
a(F140.35159593256563
F176.48041684154282
tp763
a(F140.46618485998744
F176.30250245423005
tp764
a(F140.76936088238921
F175.8317817878694
tp765
a(F140.78578953529205
F175.80627414257287
tp766
a(F141.07971063031684
F175.3499229687186
tp767
a(F141.3758865248227
F174.8900709219858
tp768
a(F141.39193781637167
F174.865149179844
tp769
a(F141.46896687732931
F174.74555142730446
tp770
a(F141.67914177607423
F174.41922724241107
tp771
a(F141.96861444394682
F173.96978283702992
tp772
a(F142.05960171697978
F173.82851312363664
tp773
a(F142.12549033564477
F173.72621237360414
tp774
a(F142.63710636591014
F172.93186116871846
tp775
a(F142.70154644993792
F172.83180945930692
tp776
a(F143.26507685721322
F171.95685435327422
tp777
a(F143.58435366582535
F171.46113509779747
tp778
a(F144.12917157440125
F170.61523360816648
tp779
a(F144.6627332299833
F169.78680893239437
tp780
a(F144.90885829035906
F169.40466739128462
tp781
a(F145.07273724796252
F169.15022374658449
tp782
a(F145.42669922669921
F168.60065120065121
tp783
a(F145.58733205374278
F168.35124760076775
tp784
a(F145.93435166982169
F167.81245398632947
tp785
a(F146.09186505988072
F167.56789372281676
tp786
a(F146.96187694051423
F166.21708580288583
tp787
a(F147.44051130776793
F165.47394296951819
tp788
a(F147.91046168450467
F164.74428317405855
tp789
a(F148.04144456417919
F164.5409150187744
tp790
a(F148.50073675118134
F163.82780346527107
tp791
a(F148.61450901064782
F163.65115706241522
tp792
a(F148.95206668635072
F163.12705435540283
tp793
a(F148.97452759199641
F163.09218084400558
tp794
a(F149.06389121728603
F162.95343205737171
tp795
a(F149.08270794461112
F162.92421661231432
tp796
a(F149.33312517630517
F162.53541091047353
tp797
a(F149.41781087580483
F162.40392521914515
tp798
a(F149.5056758015518
F162.26750336074849
tp799
a(F149.52417772648587
F162.23877668782458
tp800
a(F149.65082242774344
F162.04214412534574
tp801
a(F149.77043097707164
F161.85643611454665
tp802
a(F149.85371923436955
F161.72712013611041
tp803
a(F149.95833855338503
F161.56468487763902
tp804
a(F150.08291372943941
F161.37126552534409
tp805
a(F150.09367669442841
F161.35455460601904
tp806
a(F150.20057887023808
F161.18857491199876
tp807
a(F150.50803544690964
F160.71120812190344
tp808
a(F150.51862660944207
F160.69476394849784
tp809
a(F150.68861882474198
F160.43082866684799
tp810
a(F150.93686337666736
F160.04539633622699
tp811
a(F151.10420841683367
F159.78557114228457
tp812
a(F151.22690420345123
F159.59506978937836
tp813
a(F151.51341845266742
F159.15021871822691
tp814
a(F151.63425579655947
F158.962602842184
tp815
a(F152.03551913878687
F158.33958870556776
tp816
a(F153.20610682115432
F156.52209730399727
tp817
a(F153.58505698607007
F155.93372731110173
tp818
a(F153.682196814013
F155.78290494666405
tp819
a(F153.958908331705
F155.35327390603695
tp820
a(F154.05475869720263
F155.20445360171169
tp821
a(F154.42244157184987
F154.63357755949625
tp822
a(F154.69392400251147
F154.21206536452169
tp823
a(F154.98350309211878
F153.76245572539455
tp824
a(F155.05348227130406
F153.65380384192267
tp825
a(F155.24554982064194
F153.35559369952961
tp826
a(F155.27450133113834
F153.31064267007466
tp827
a(F155.3394827191577
F153.20975051499198
tp828
a(F155.40860666243609
F153.10242649779661
tp829
a(F155.5065401758923
F152.95037183216724
tp830
a(F155.59834605016675
F152.80783113263581
tp831
a(F155.62694905784957
F152.76342119965463
tp832
a(F155.69115055780549
F152.66373992340723
tp833
a(F155.85621779378906
F152.40745132016963
tp834
a(F155.92542886640317
F152.29999202321613
tp835
a(F155.94693899596919
F152.26659471678468
tp836
a(F155.94937733331685
F152.26280887721859
tp837
a(F155.97520537483621
F152.22270744433325
tp838
a(F156.2017983595031
F151.87089202077152
tp839
a(F156.22263744624743
F151.83853659661582
tp840
a(F156.2392169342867
F151.81279475992329
tp841
a(F156.27020955026347
F151.76467464564357
tp842
a(F156.29388209121245
F151.72791991101224
tp843
a(F156.40660781789566
F151.55289838800408
tp844
a(F156.47582484635467
F151.44542984381775
tp845
a(F156.52432405044215
F151.37012844799773
tp846
a(F156.56402473299607
F151.30848791455875
tp847
a(F156.5804169057181
F151.28303690954294
tp848
a(F156.61105992840859
F151.23545958483928
tp849
a(F156.63446593879374
F151.19911867397812
tp850
a(F156.63883843077352
F151.19232980485165
tp851
a(F156.74592833876221
F151.02605863192184
tp852
a(F156.81437444543036
F150.91978704525289
tp853
a(F156.86233565351895
F150.84532095901005
tp854
a(F156.90159727566888
F150.78436212461941
tp855
a(F156.91780851346752
F150.7591920448794
tp856
a(F156.97558685446009
F150.66948356807512
tp857
a(F156.99547434653627
F150.63860561985157
tp858
a(F157.08150452698598
F150.5050324449428
tp859
a(F157.1375696230678
F150.41798400628949
tp860
a(F157.14920598433994
F150.39991702431431
tp861
a(F157.19664753420898
F150.32625777583343
tp862
a(F157.30867862357874
F150.15231476865404
tp863
a(F157.32835286749577
F150.1217679162566
tp864
a(F157.39642086476167
F150.01608339418581
tp865
a(F157.46893327318213
F149.90349833900669
tp866
a(F157.65770681019185
F149.6104025841758
tp867
a(F157.72506450191932
F149.50582090491474
tp868
a(F157.79682411561799
F149.3944046625931
tp869
a(F158.05032841361978
F149.00080588411663
tp870
a(F158.90757597611821
F147.66981624760592
tp871
a(F159.15739612449536
F147.28193759617827
tp872
a(F159.2213613724405
F147.18262313226342
tp873
a(F159.46889325474788
F146.79829731499672
tp874
a(F159.53228027613025
F146.69988062390306
tp875
a(F159.77760402741001
F146.31898322060027
tp876
a(F160.026978675945
F145.93179626629589
tp877
a(F160.33088296717068
F145.45994486676133
tp878
a(F160.35206219043076
F145.42706133591014
tp879
a(F160.37287676495373
F145.39474397020342
tp880
a(F160.44360598701763
F145.28492754647263
tp881
a(F160.44506041434215
F145.28266935667932
tp882
a(F160.6322701409002
F144.99200162333915
tp883
a(F160.65327658065087
F144.959386361621
tp884
a(F160.67392168116197
F144.92733212661693
tp885
a(F160.74407749889917
F144.81840598855129
tp886
a(F160.74552017532551
F144.81616604357353
tp887
a(F160.95207079695797
F144.49546902577578
tp888
a(F160.97255256434408
F144.46366838693947
tp889
a(F161.04215578605871
F144.35560022690882
tp890
a(F161.04358713852383
F144.35337786387089
tp891
a(F161.16838514904188
F144.15961253175075
tp892
a(F161.46320166320166
F143.70187110187109
tp893
a(F161.49567853193136
F143.65144648989605
tp894
a(F161.7558330780185
F143.24752232623445
tp895
aa(lp896
(I138
I126
tp897
a(F122.95530692496135
F214.2698037573723
tp898
a(F127.60711999416199
F214.21016512827998
tp899
a(F127.64034411998169
F214.20973917794896
tp900
a(F131
F191
tp901
a(F131.02926678989525
F190.95455945779423
tp902
a(F131.77414935162102
F189.79803126985158
tp903
a(F131.80228644823598
F189.75434472510733
tp904
a(F134.21123566173921
F186.01413410414173
tp905
a(F134.34416444286384
F185.80774468081665
tp906
a(F134.86751269035534
F184.99517766497462
tp907
a(F134.9958272480701
F184.79595243062801
tp908
a(F135.50121433959137
F184.01127247273973
tp909
a(F135.62517518737712
F183.81880694591445
tp910
a(F136.17810238619438
F182.96031471617187
tp911
a(F136.76826347305388
F182.0440119760479
tp912
a(F137.33949052041871
F181.15710682356044
tp913
a(F137.69774044008145
F180.60087668513668
tp914
a(F138.23999533309998
F179.7589546143974
tp915
a(F138.7658277276131
F178.94253063344286
tp916
a(F139.63317136451576
F177.59586551298867
tp917
a(F140.11843460350156
F176.84243048403707
tp918
a(F140.59011684526865
F176.11008174024076
tp919
a(F140.88671743897692
F175.64957029211476
tp920
a(F141.3374797187669
F174.94970254191455
tp921
a(F141.56118939019277
F174.60236384154283
tp922
a(F141.7763003096114
F174.26837583507702
tp923
a(F141.99417475728157
F173.93009708737864
tp924
a(F142.04421318654192
F173.8524058419481
tp925
a(F142.41603841679338
F173.27509824761029
tp926
a(F142.46480620155037
F173.19937984496124
tp927
a(F142.87483897085627
F172.56275001893368
tp928
a(F143.20658753039052
F172.0476667291305
tp929
a(F143.34108414255221
F171.83884304182683
tp930
a(F143.59851889360087
F171.43914171783024
tp931
a(F143.72980501392757
F171.2353027415335
tp932
a(F143.98115600774818
F170.84504725112782
tp933
a(F143.99297850264338
F170.8266912722116
tp934
a(F144.10937057046812
F170.64597727216793
tp935
a(F144.3664500154751
F170.24682760755184
tp936
a(F144.52402923357266
F170.0021651373477
tp937
a(F144.73141810483898
F169.6801666266974
tp938
a(F144.88546041020024
F169.44099567889964
tp939
a(F145.23889342091076
F168.89224442542806
tp940
a(F145.44871019101785
F168.56647628236703
tp941
a(F145.78999642729548
F168.03658449446232
tp942
a(F146.0019510030738
F167.70749712680646
tp943
a(F146.12411096647753
F167.51782770994276
tp944
a(F146.27948749158671
F167.27658521043116
tp945
a(F146.33168316831683
F167.19554455445547
tp946
a(F146.60356428441534
F166.77341334788144
tp947
a(F146.65470688288863
F166.69400773446239
tp948
a(F146.9211564918688
F166.28030965736158
tp949
a(F147.74051300046466
F165.00815086769961
tp950
a(F148.03637170104236
F164.54879130627634
tp951
a(F148.32683447775383
F164.09780962664539
tp952
a(F148.45262180636209
F163.90250824801674
tp953
a(F148.73567467652495
F163.4630314232902
tp954
a(F148.8302876232153
F163.3161323744815
tp955
a(F149.01381019604213
F163.03118943246091
tp956
a(F149.0726436614934
F162.93984273610235
tp957
a(F149.10680140684599
F162.88680834200227
tp958
a(F149.14011430622753
F162.83508568243622
tp959
a(F149.30103963987128
F162.5852279275683
tp960
a(F149.34505342985176
F162.51689072733541
tp961
a(F149.37863855485375
F162.46474540167443
tp962
a(F149.41139437761018
F162.4138876768684
tp963
a(F149.51612745668373
F162.25127579093839
tp964
a(F149.56964783379783
F162.1681783633139
tp965
a(F149.61293639618964
F162.10096717433714
tp966
a(F149.67818872490224
F161.99965434817813
tp967
a(F149.78121420389462
F161.83969373605836
tp968
a(F149.83386717527782
F161.7579430699634
tp969
a(F149.84841499113136
F161.73535567166445
tp970
a(F150.04203917080471
F161.43472865585585
tp971
a(F150.10817330888739
F161.33204670462223
tp972
a(F150.29911910915294
F161.03557822526255
tp973
a(F150.36386084646458
F160.93505815943655
tp974
a(F150.55186721991703
F160.64315352697096
tp975
a(F150.65116125396159
F160.48898647411227
tp976
a(F150.80079356313453
F160.25666262565954
tp977
a(F150.89860771601658
F160.10479328302688
tp978
a(F151.14241909348459
F159.72624403906343
tp979
a(F152.29702063523334
F157.93357322424299
tp980
a(F152.52170843628662
F157.58471584892339
tp981
a(F152.68162606479339
F157.3364226888734
tp982
a(F152.7435487964197
F157.24027950029574
tp983
a(F152.90147783251231
F156.99507389162562
tp984
a(F152.99279949908598
F156.85328498826124
tp985
a(F153.02130424140051
F156.80902762519395
tp986
a(F153.11864735753932
F156.65788962908368
tp987
a(F153.16352216299379
F156.58821558903597
tp988
a(F153.20887245841035
F156.5178032882576
tp989
a(F153.21234431937293
F156.51241276728939
tp990
a(F153.23703703703703
F156.47407407407405
tp991
a(F153.33351381153992
F156.32428118734592
tp992
a(F153.37757281553399
F156.25587378640776
tp993
a(F153.42239197603038
F156.18628614247916
tp994
a(F153.42582328007825
F156.18095859145745
tp995
a(F153.4502279776556
F156.14306708732423
tp996
a(F153.54558666795853
F155.9950101734328
tp997
a(F153.57693477096731
F155.94633811876128
tp998
a(F153.5891388992095
F155.92738960385893
tp999
a(F153.63683713836312
F155.85333181148883
tp1000
a(F153.75524229927265
F155.66949221955036
tp1001
a(F153.7862378201259
F155.62136759506768
tp1002
a(F153.87304383955245
F155.48658982806327
tp1003
a(F153.94723343264087
F155.37140072300497
tp1004
a(F153.95079219110755
F155.36587528222773
tp1005
a(F153.95820587142137
F155.35436456805627
tp1006
a(F153.99321797679437
F155.30000366760873
tp1007
a(F154.07907653153973
F155.16669696418833
tp1008
a(F154.08561580522917
F155.15654388135474
tp1009
a(F154.15246376811595
F155.05275362318841
tp1010
a(F154.15598421031214
F155.04728767346273
tp1011
a(F154.16331811979484
F155.03590081400273
tp1012
a(F154.1706040177227
F155.02458849879895
tp1013
a(F154.28289783069738
F154.85023757865406
tp1014
a(F154.28936777878749
F154.84019213293521
tp1015
a(F154.2997946695555
F154.82400301305859
tp1016
a(F154.35551010026271
F154.73749747590793
tp1017
a(F154.35899353459229
F154.73208898576462
tp1018
a(F154.36488484125846
F154.72294195699345
tp1019
a(F154.36625039734784
F154.72082175148626
tp1020
a(F154.36881975460932
F154.71683248626451
tp1021
a(F154.37345981899466
F154.70962817577146
tp1022
a(F154.49098626329189
F154.52715290699416
tp1023
a(F154.50130535909241
F154.51113115298807
tp1024
a(F154.56572566678213
F154.41111014894355
tp1025
a(F154.56962025316454
F154.40506329113924
tp1026
a(F154.57421278852428
F154.39793277571229
tp1027
a(F154.63140857156566
F154.30912879677962
tp1028
a(F154.70075929249478
F154.20145267744232
tp1029
a(F154.76453271242841
F154.10243605175592
tp1030
a(F154.76838835575984
F154.09644965816236
tp1031
aa(lp1032
(I143
I153
tp1033
a(F146.40115366353143
F167.08768246978013
tp1034
a(F146.55000930865981
F166.85656449444926
tp1035
a(F146.65468142387078
F166.69404726293749
tp1036
a(F146.75746754863115
F166.53445827975688
tp1037
a(F146.82308864577848
F166.43257289208077
tp1038
a(F146.9229192291923
F166.27757277572775
tp1039
a(F146.95974200604778
F166.22040056955743
tp1040
a(F147.02104372223579
F166.12522158916022
tp1041
a(F147.05724583907559
F166.06901303933
tp1042
a(F147.10431742727073
F165.99592820502704
tp1043
a(F147.12816783169922
F165.9588973139407
tp1044
a(F147.14228052030734
F165.93698550794386
tp1045
a(F147.15312870012647
F165.92014228138257
tp1046
a(F147.19942942534982
F165.84825431327266
tp1047
a(F147.22289215209568
F165.81182534279878
tp1048
a(F147.23677636580862
F165.79026827413924
tp1049
a(F147.24621988135462
F165.77560597368625
tp1050
a(F147.29300706737797
F165.7029627111763
tp1051
a(F147.31609607265642
F165.66711399245452
tp1052
a(F147.3297600257805
F165.64589890734081
tp1053
a(F147.33905410716625
F165.63146862308398
tp1054
a(F147.43043565161733
F165.48958675143624
tp1055
a(F147.46888388308651
F165.42989081310253
tp1056
a(F147.55828356558283
F165.29108604291088
tp1057
a(F147.64635228880627
F165.1543477621166
tp1058
a(F147.73331375742367
F165.01932863978956
tp1059
a(F147.81885639458753
F164.88651243998254
tp1060
a(F147.82975063531617
F164.86959769779858
tp1061
a(F147.90320287166404
F164.75555343610057
tp1062
a(F147.91394658753708
F164.73887240356083
tp1063
a(F147.9969930202119
F164.60993188967097
tp1064
a(F148.43748669859158
F163.92600749429204
tp1065
a(F148.51393467186097
F163.80731195684746
tp1066
a(F148.54899679235064
F163.75287340135034
tp1067
a(F148.58949842398994
F163.68998928906825
tp1068
a(F148.61382293870594
F163.65222227937764
tp1069
a(F148.62416177158602
F163.63616988095856
tp1070
a(F148.65684696388638
F163.58542181922905
tp1071
a(F148.67835262806145
F163.55203144590459
tp1072
a(F148.68826183930702
F163.53664609160225
tp1073
a(F148.69848621875605
F163.52077139719455
tp1074
a(F148.73081201334816
F163.47058134769628
tp1075
a(F148.74826126538105
F163.44348908796101
tp1076
a(F148.75208322550591
F163.43755499197763
tp1077
a(F148.76145283026256
F163.42300744775025
tp1078
a(F148.76188494703587
F163.42233652960221
tp1079
a(F148.80397742717994
F163.35698241569432
tp1080
a(F148.82124079915877
F163.33017875920083
tp1081
a(F148.8250221863178
F163.32430765808553
tp1082
a(F148.83429253990661
F163.30991421435553
tp1083
a(F148.87918137003518
F163.24021839915591
tp1084
a(F148.89345434801044
F163.21805772282588
tp1085
a(F148.90637104553952
F163.19800285034654
tp1086
a(F148.91063818147353
F163.19137756034374
tp1087
a(F148.93231549825992
F163.15772067375431
tp1088
a(F148.9403259065742
F163.14528346084529
tp1089
a(F148.95079993118873
F163.12902115947014
tp1090
a(F148.98193859121011
F163.08067429259481
tp1091
a(F149.00339866319248
F163.04735470714851
tp1092
a(F149.01132920563825
F163.03504149650902
tp1093
a(F149.02169913733101
F163.01894081309132
tp1094
a(F149.04283203796228
F162.98612920421647
tp1095
a(F149.0478891274648
F162.9782774073573
tp1096
a(F149.05253058314787
F162.97107093669149
tp1097
a(F149.07378088838578
F162.93807704171681
tp1098
a(F149.08163431624612
F162.92588356161787
tp1099
a(F149.11283297883116
F162.8774435328674
tp1100
a(F149.11784156142366
F162.86966704936853
tp1101
a(F149.18217037162626
F162.76978810721187
tp1102
a(F149.18713212943024
F162.76208432535833
tp1103
a(F149.30444638666205
F162.57993850491943
tp1104
a(F149.30796383394662
F162.57447720518812
tp1105
a(F149.31704043668316
F162.56038458514982
tp1106
a(F149.37205450575925
F162.47496800421592
tp1107
a(F149.37554140127389
F162.4695541401274
tp1108
a(F149.38453936532338
F162.4555836169979
tp1109
a(F149.39129725248679
F162.44509110798103
tp1110
a(F149.43908292746571
F162.37089755998747
tp1111
a(F149.44254035598669
F162.36552944728382
tp1112
a(F149.4514624755233
F162.35167668274013
tp1113
a(F149.45816358508304
F162.34127232842368
tp1114
a(F149.52447668913706
F162.2383125089714
tp1115
a(F149.76682549137672
F161.86203410549402
tp1116
a(F149.76927710378644
F161.85822765464741
tp1117
a(F149.83078653792069
F161.76272616480736
tp1118
a(F149.83322079675895
F161.75894665766373
tp1119
a(F149.84739642388743
F161.7369371313327
tp1120
a(F149.8739076550479
F161.69577495663614
tp1121
a(F149.87707705227962
F161.69085405040798
tp1122
a(F149.88258392457641
F161.68230390657874
tp1123
a(F149.89342945915155
F161.66546478710683
tp1124
a(F149.8943016956743
F161.66411052513726
tp1125
a(F149.89671926632312
F161.66035692860359
tp1126
a(F149.91079812206573
F161.63849765258215
tp1127
a(F149.93713025167955
F161.59761355660282
tp1128
a(F149.9402784014369
F161.59272563987426
tp1129
a(F149.94574843923922
F161.58423268644438
tp1130
a(F149.95652173913044
F161.56750572082379
tp1131
a(F149.9737755756166
F161.54071686943738
tp1132
a(F149.99993562659455
F161.50009994818217
tp1133
a(F150.00306336524474
F161.49524372238318
tp1134
a(F150.00535260718948
F161.4916893730479
tp1135
a(F150.0084980201286
F161.4868057055898
tp1136
a(F150.01920193814277
F161.47018646446253
tp1137
a(F150.06772340336312
F161.39485050530465
tp1138
a(F150.07889609240428
F161.37750343547759
tp1139
a(F150.12971110398178
F161.29860644381779
tp1140
a(F150.13355101656691
F161.29264447427769
tp1141
a(F150.14081660153619
F161.28136369761486
tp1142
a(F150.19514911520852
F161.19700532112361
tp1143
a(F150.20237262560923
F161.18578987076464
tp1144
a(F150.25639634580017
F161.10191093678392
tp1145
a(F150.28808141029435
F161.05271570506929
tp1146
a(F150.31457950131636
F161.0115739321667
tp1147
a(F150.3488243684719
F160.95840427000414
tp1148
a(F150.35002309625366
F160.95654308739563
tp1149
a(F150.35076232108321
F160.9553953435813
tp1150
a(F150.37518420277041
F160.91747715885646
tp1151
a(F150.40925402814659
F160.86457927208818
tp1152
a(F150.41044670290711
F160.8627274875916
tp1153
a(F150.41118219749652
F160.86158553546593
tp1154
a(F150.4354819165946
F160.82385702423471
tp1155
a(F150.47057170602858
F160.76937550906086
tp1156
a(F150.47130364455214
F160.76823907819536
tp1157
a(F150.52804842809485
F160.68013533532644
tp1158
a(F150.54958806685903
F160.64669221198201
tp1159
a(F150.58762886597938
F160.58762886597938
tp1160
a(F150.60907400520639
F160.5543324656006
tp1161
a(F150.61141601662422
F160.55069618471501
tp1162
a(F150.63839255710079
F160.50881155608036
tp1163
a(F150.64695187544845
F160.49552208811954
tp1164
a(F150.66830739717736
F160.46236483069831
tp1165
a(F150.67063971900731
F160.45874359417286
tp1166
a(F150.69750603378921
F160.41703010543253
tp1167
a(F150.7125216431327
F160.39371639618867
tp1168
a(F150.72962477699065
F160.36716153046191
tp1169
a(F150.75638688148678
F160.32560984190212
tp1170
a(F150.77134534862552
F160.30238485344984
tp1171
a(F150.7851359809346
F160.28097308223312
tp1172
a(F150.82995280511071
F160.21138906574916
tp1173
a(F150.84369449378329
F160.19005328596802
tp1174
a(F150.90205260112674
F160.099444645619
tp1175
a(F150.90947010164808
F160.08792800007271
tp1176
a(F150.9235569193975
F160.0660563619881
tp1177
a(F150.95672770538962
F160.0145543521582
tp1178
a(F150.95783957291485
F160.01282803152694
tp1179
a(F150.96761743386992
F159.99764661583356
tp1180
a(F150.98166108270146
F159.97584200317405
tp1181
a(F151.0039690083224
F159.94120601339415
tp1182
a(F151.01473296500922
F159.9244935543278
tp1183
a(F151.01584158415841
F159.92277227722772
tp1184
a(F151.02559106528969
F159.90763492494497
tp1185
a(F151.03959453958402
F159.88589268854059
tp1186
a(F151.06184007105028
F159.85135357389561
tp1187
a(F151.07257454574034
F159.83468688950842
tp1188
a(F151.07368015151371
F159.83297029107084
tp1189
a(F151.11955740874251
F159.76173981274192
tp1190
a(F151.12128797924967
F159.75905287432289
tp1191
a(F151.1788596375182
F159.66966529964282
tp1192
a(F151.21713871525864
F159.61023199472999
tp1193
a(F151.22676998655982
F159.59527817876238
tp1194
a(F151.23630203570218
F159.58047841825189
tp1195
a(F151.2628065167014
F159.5393267240689
tp1196
a(F151.26888367901279
F159.52989112995382
tp1197
a(F151.27450160906091
F159.52116855435281
tp1198
a(F151.28411368659096
F159.50624453924038
tp1199
a(F151.29418309873284
F159.49061045196743
tp1200
a(F151.32008129048648
F159.4504001016131
tp1201
a(F151.32614727854855
F159.44098185699039
tp1202
a(F151.33175499412923
F159.43227514069409
tp1203
a(F151.34134985215687
F159.41737786112486
tp1204
a(F151.35140157355789
F159.40177124105483
tp1205
a(F151.37725590136711
F159.36162899524578
tp1206
a(F151.38331195599889
F159.35222617358065
tp1207
a(F151.40583671245847
F159.31725352539343
tp1208
a(F151.40852628502012
F159.31307761010032
tp1209
a(F151.46288289945727
F159.22868181400054
tp1210
a(F151.4715528484476
F159.21522057741029
tp1211
a(F151.51985797157184
F159.14022051782268
tp1212
aa(lp1213
(I157
I174
tp1214
a(F161.90190659758312
F183.80420798420349
tp1215
a(F161.91504542158566
F183.7347599144758
tp1216
a(F161.94578015955963
F183.57230487089907
tp1217
a(F161.94791666666666
F183.5610119047619
tp1218
a(F161.96244277492514
F183.48423104682436
tp1219
a(F161.97596097862765
F183.41277768439673
tp1220
a(F161.97787610619469
F183.40265486725664
tp1221
a(F161.97995926662193
F183.39164387642691
tp1222
a(F161.98765038106461
F183.35099084294416
tp1223
a(F161.99412455934194
F183.31677018633542
tp1224
a(F162.00730994152048
F183.24707602339183
tp1225
a(F162.00917814888911
F183.23720121301474
tp1226
a(F162.01071099633006
F183.22909901939821
tp1227
a(F162.0187138482477
F183.18679823069073
tp1228
a(F162.02503082289024
F183.1534085075802
tp1229
a(F162.03789806703895
F183.0853959313655
tp1230
a(F162.04121750158529
F183.06785034876347
tp1231
a(F162.04902901002583
F183.02656094700632
tp1232
a(F162.06993634438496
F182.91605075110814
tp1233
a(F162.07099997968345
F182.91042867881609
tp1234
a(F162.08165198272937
F182.8541252341447
tp1235
a(F162.08944261942761
F182.8129461544541
tp1236
a(F162.09049251175415
F182.80739672358519
tp1237
a(F162.09905052162702
F182.76216152854295
tp1238
a(F162.11049723756906
F182.70165745856355
tp1239
a(F162.11811023622047
F182.66141732283464
tp1240
a(F162.11913626209977
F182.65599404318689
tp1241
a(F162.12750037258959
F182.61178374488361
tp1242
a(F162.1386895325044
F182.55264104247669
tp1243
a(F162.13915613245752
F182.55017472843883
tp1244
a(F162.14214760203151
F182.53436267497634
tp1245
a(F162.14613237179697
F182.51330032050183
tp1246
a(F162.14713553423627
F182.50799789046545
tp1247
a(F162.16671259300082
F182.40451915128133
tp1248
a(F162.16963843486874
F182.38905398712234
tp1249
a(F162.19366981865019
F182.26203095856332
tp1250
a(F162.19653273530224
F182.24689839911673
tp1251
a(F162.24947314785652
F181.96707050418698
tp1252
a(F162.25239037264524
F181.95165088744665
tp1253
a(F162.25602092752291
F181.93246081166455
tp1254
a(F162.27470231878004
F181.83371631501984
tp1255
a(F162.27756059421424
F181.81860828772477
tp1256
a(F162.28111797205071
F181.79980500487488
tp1257
a(F162.29482099880858
F181.7273747205833
tp1258
a(F162.29942609966798
F181.70303347318347
tp1259
a(F162.30222774934018
F181.68822475348767
tp1260
a(F162.30571483084927
F181.66979303693952
tp1261
a(F162.31914893617022
F181.59878419452889
tp1262
a(F162.34300671756444
F181.472678778588
tp1263
a(F162.42903244491504
F181.01797136259191
tp1264
a(F162.44286980197089
F180.94483104672526
tp1265
a(F162.45088280601968
F180.90247659675316
tp1266
a(F162.46448087431693
F180.83060109289619
tp1267
a(F162.46988500310124
F180.80203641217912
tp1268
a(F162.47095672452792
F180.79637159892386
tp1269
a(F162.47235669207424
F180.78897177046466
tp1270
a(F162.47239430181546
F180.78877297611828
tp1271
a(F162.4769028689459
F180.76494197842874
tp1272
a(F162.48572427580655
F180.71831454216544
tp1273
a(F162.49103761676344
F180.69022973996465
tp1274
a(F162.49209138840069
F180.68465980416772
tp1275
a(F162.49350491683865
F180.67718829670997
tp1276
a(F162.49793827314758
F180.65375484193427
tp1277
a(F162.51183931082247
F180.58027792850984
tp1278
a(F162.5128757854267
F180.57479941988748
tp1279
a(F162.51396106220599
F180.56906295691115
tp1280
a(F162.51426613920481
F180.56745040706025
tp1281
a(F162.51862701597051
F180.54440005844165
tp1282
a(F162.53439044481055
F180.46107907742999
tp1283
a(F162.53592572392375
F180.45296403068869
tp1284
a(F162.55449502734135
F180.35481199833856
tp1285
a(F162.55600616432801
F180.34682455998055
tp1286
a(F162.57577427656298
F180.24233596673849
tp1287
a(F162.60773840838405
F180.07338269854142
tp1288
a(F162.61435888802583
F180.03838873472066
tp1289
a(F162.6252716290052
F179.98070710382964
tp1290
a(F162.62673130193906
F179.9729916897507
tp1291
a(F162.63325563325563
F179.93850593850593
tp1292
a(F162.63610847764403
F179.92342661816721
tp1293
a(F162.64174302536648
F179.89364400877713
tp1294
a(F162.6440114068441
F179.88165399239543
tp1295
a(F162.64545022723448
F179.87404879890346
tp1296
a(F162.65188176657682
F179.84005351952248
tp1297
a(F162.65469424869289
F179.82518754262333
tp1298
a(F162.66024945770064
F179.79582429501085
tp1299
a(F162.66248604084791
F179.78400235551823
tp1300
a(F162.67302022754546
F179.72832165440258
tp1301
a(F162.67849884982016
F179.69936322237922
tp1302
a(F162.69907073320789
F179.59062612447255
tp1303
a(F162.70871938024891
F179.53962613297008
tp1304
a(F162.71679859278805
F179.49692172383465
tp1305
a(F162.72284420973162
F179.46496631998997
tp1306
a(F162.72632133219247
F179.4465872441256
tp1307
a(F162.72721115387466
F179.4418839009482
tp1308
a(F162.73429625504909
F179.40443408045485
tp1309
a(F162.74026451138869
F179.37288758265981
tp1310
a(F162.7436974032546
F179.35474229708291
tp1311
a(F162.74457593688362
F179.3500986193294
tp1312
a(F162.75320826120966
F179.30447061932031
tp1313
a(F162.75746514972298
F179.28196992289284
tp1314
a(F162.76172295474223
F179.25946438207674
tp1315
a(F162.7702488088936
F179.21439915299101
tp1316
a(F162.77040963955685
F179.21354904805665
tp1317
a(F162.78708266026277
F179.12542022432532
tp1318
a(F162.78724156211345
F179.12458031454321
tp1319
a(F162.8038738988071
F179.03666653487684
tp1320
a(F162.81585995321137
F178.9733116758828
tp1321
a(F162.81755194511942
F178.96436829008309
tp1322
a(F162.82406381859653
F178.92994838741842
tp1323
a(F162.83193616098629
F178.88833743478682
tp1324
a(F162.8321633005724
F178.88713683983153
tp1325
a(F162.83383625025147
F178.87829410581372
tp1326
a(F162.83784739749916
F178.85709232750446
tp1327
a(F162.84027526258603
F178.84425932633104
tp1328
a(F162.84806042384687
F178.80310918823787
tp1329
a(F162.84828506266842
F178.80192181160973
tp1330
a(F162.84993961881543
F178.79317630054706
tp1331
a(F162.85390684652583
F178.77220666836345
tp1332
a(F162.85630825261839
F178.75951352187428
tp1333
a(F162.86400920459613
F178.71880848999186
tp1334
a(F162.86979302398385
F178.68823687322831
tp1335
a(F162.89855240040927
F178.53622302640809
tp1336
a(F162.90273644773794
F178.51410734767083
tp1337
a(F162.91397849462365
F178.45468509984639
tp1338
a(F162.91507632166534
F178.44888229976885
tp1339
a(F162.91647619599209
F178.44148296404182
tp1340
a(F162.91812105458595
F178.43278871147419
tp1341
a(F162.92269003310778
F178.40863839643026
tp1342
a(F162.92925301424197
F178.37394835329252
tp1343
a(F162.92939095931516
F178.37321921504852
tp1344
a(F162.930340199028
F178.36820180513769
tp1345
a(F162.93172653099504
F178.36087405045484
tp1346
a(F162.93335551724871
F178.35226369454253
tp1347
a(F162.93788063337394
F178.32834522359491
tp1348
a(F162.9445178335535
F178.29326287978864
tp1349
a(F162.94545810397091
F178.28829287901087
tp1350
a(F162.94683136245533
F178.28103422702176
tp1351
a(F162.95292780071472
F178.24881019622225
tp1352
a(F162.95892824604022
F178.21709355664464
tp1353
a(F162.95950348844985
F178.21405298962213
tp1354
a(F162.96105842866615
F178.20583401990746
tp1355
a(F162.97378277153558
F178.13857677902621
tp1356
a(F162.97589385191938
F178.1274182112833
tp1357
a(F162.98073841208046
F178.10181125043187
tp1358
a(F162.98537751323664
F178.0772902871777
tp1359
a(F162.98850560140491
F178.0607561068598
tp1360
a(F162.99059825197975
F178.0496949538213
tp1361
a(F162.99540078843626
F178.02431011826545
tp1362
a(F162.99998739263006
F178.00006663895545
tp1363
a(F163
F178
tp1364
a(F163.00920718060783
F177.97412035721038
tp1365
a(F163.00968036296447
F177.9727903311269
tp1366
a(F163.01703135620073
F177.95212807986823
tp1367
a(F163.02483916083915
F177.93018181818181
tp1368
a(F163.02486063486998
F177.93012145874386
tp1369
a(F163.02569429076235
F177.92777820974911
tp1370
a(F163.03402298850574
F177.90436781609196
tp1371
a(F163.03449388647854
F177.90304421097923
tp1372
a(F163.04958050576536
F177.86063857838926
tp1373
a(F163.05043162199001
F177.85824625170378
tp1374
a(F163.05872155157113
F177.83494482801635
tp1375
a(F163.05919027517598
F177.83362733464048
tp1376
a(F163.06853171121912
F177.80737032522194
tp1377
a(F163.07505552624346
F177.78903311542379
tp1378
a(F163.07531150187896
F177.78831361634025
tp1379
a(F163.09307590717566
F177.73838123388467
tp1380
a(F163.09982655617654
F177.71940643669299
tp1381
a(F163.1175164526345
F177.6696834844868
tp1382
a(F163.12423948910865
F177.65078630088382
tp1383
a(F163.18520113566771
F177.47943464569076
tp1384
a(F163.20618825050346
F177.42044383642269
tp1385
a(F163.20929821460138
F177.41170231571505
tp1386
a(F163.22257097267749
F177.37439510382546
tp1387
a(F163.23021715693824
F177.35290312644386
tp1388
a(F163.2333173370765
F177.34418910659579
tp1389
a(F163.24654926225608
F177.30699666825322
tp1390
a(F163.25417260266764
F177.28556890060986
tp1391
a(F163.27045757716718
F177.23979491823277
tp1392
a(F163.27821743130795
F177.21798343632355
tp1393
a(F163.27821743130795
F177.21798343632355
tp1394
a(F163.30204081632652
F177.15102040816328
tp1395
a(F163.30204081632652
F177.15102040816328
tp1396
a(F163.3258059277743
F177.08422117598573
tp1397
a(F163.3258059277743
F177.08422117598573
tp1398
a(F163.43888308846479
F176.76638267026115
tp1399
aa(lp1400
(I175
I191
tp1401
a(F182.08955803914955
F215.87942330469042
tp1402
a(F184.56032190841501
F215.96270748005892
tp1403
a(F184.85154617634768
F215.97252402841622
tp1404
a(F185.14530922228525
F215.98242615356017
tp1405
a(F185.96879301327931
F216.01018403415549
tp1406
a(F186.27294383149447
F216.02043630892678
tp1407
a(F186.58010070372598
F216.03078991136155
tp1408
a(F186.68931796728364
F216.03447139215564
tp1409
a(F187.00071377587437
F216.04496788008566
tp1410
a(F187.00258813851892
F216.04503106084894
tp1411
a(F187.02997452192736
F216.04595419736833
tp1412
a(F187.31537328402186
F216.0555743803603
tp1413
a(F187.31726753396379
F216.05563823148194
tp1414
a(F187.32135955117974
F216.05577616464652
tp1415
a(F187.34494482220489
F216.05657117378217
tp1416
a(F187.63532685277565
F216.06635933211604
tp1417
a(F187.63946336029449
F216.06649876495374
tp1418
a(F187.66330533084673
F216.06730242688246
tp1419
a(F187.82425244919483
F216.07272761064701
tp1420
a(F187.96106806905016
F216.07733937311406
tp1421
a(F188.14792924568417
F216.08363806446127
tp1422
a(F188.33492691568779
F216.08994135670858
tp1423
a(F188.47530351983272
F216.09467315235392
tp1424
a(F188.5206101738147
F216.09620034293758
tp1425
a(F188.55771077876651
F216.09745092512696
tp1426
a(F188.55771077876651
F216.09745092512696
tp1427
a(F188.66447680325092
F216.10104977988487
tp1428
a(F188.68283674633375
F216.1016686543708
tp1429
a(F188.85234899328859
F216.10738255033556
tp1430
a(F188.8898903775883
F216.1086479902558
tp1431
a(F188.8898903775883
F216.1086479902558
tp1432
a(F188.99793120450164
F216.11228981588209
tp1433
a(F189.01651131824235
F216.11291611185086
tp1434
a(F189.01903658441245
F216.11300123318244
tp1435
a(F189.18806951304128
F216.1186989723497
tp1436
a(F189.22606722310164
F216.11997979403714
tp1437
a(F189.22606722310164
F216.11997979403714
tp1438
a(F189.27392130249174
F216.12159285289297
tp1439
a(F189.35423587609387
F216.12430008571104
tp1440
a(F189.35679214402617
F216.12438625204584
tp1441
a(F189.40348061297229
F216.12596002066198
tp1442
a(F189.61429591244834
F216.13306615435221
tp1443
a(F189.61483313979906
F216.1330842631393
tp1444
a(F189.69874176905037
F216.13591264390058
tp1445
a(F189.74601741955865
F216.13750620515367
tp1446
a(F189.95950653120465
F216.14470246734396
tp1447
a(F189.96005061933073
F216.14472080739318
tp1448
a(F190.09291737156872
F216.14919946196298
tp1449
a(F190.30917501354557
F216.15648904540041
tp1450
a(F190.35267635015373
F216.15795538258945
tp1451
a(F190.70754228512254
F216.16991715567829
tp1452
a(F191.06720934135649
F216.18204076431539
tp1453
a(F193.74353472474658
F216.27225397948584
tp1454
a(F194.03054436145794
F216.28192846162219
tp1455
a(F194.14855031904176
F216.28590619052949
tp1456
a(F194.44024351169497
F216.29573854533803
tp1457
a(F194.56019504281304
F216.29978185537573
tp1458
a(F194.83546035531683
F216.30906046141519
tp1459
a(F194.85674717142447
F216.3097779945424
tp1460
a(F194.86157055467527
F216.30994058049467
tp1461
a(F194.9110934343019
F216.31160989104387
tp1462
a(F194.99214086326501
F216.31434182685163
tp1463
a(F195.25866050808315
F216.32332563510391
tp1464
a(F195.28521769869792
F216.32422082130444
tp1465
a(F195.33558994197293
F216.32591876208897
tp1466
a(F195.41803182086034
F216.32869770182674
tp1467
a(F195.6891756477205
F216.33783738138385
tp1468
a(F195.71619685734197
F216.33874820867445
tp1469
a(F195.76745084268771
F216.34047587110183
tp1470
a(F195.85134039348827
F216.34330360876928
tp1471
a(F195.90815320535472
F216.3452186473715
tp1472
a(F196.35018532246107
F216.3601186063751
tp1473
a(F196.49778612934611
F216.36509391447234
tp1474
a(F196.80025700221029
F216.37528956187225
tp1475
a(F196.95057866750079
F216.38035658429777
tp1476
a(F197.41183148203189
F216.39590443197861
tp1477
a(F197.49929243259436
F216.39885255390769
tp1478
a(F197.97102741252507
F216.41475373300645
tp1479
a(F198.40631008721675
F216.42942618271519
tp1480
a(F198.45197529356784
F216.43096545933375
tp1481
a(F198.69464340143276
F216.43914528319436
tp1482
a(F198.89592413711864
F216.44593002709388
tp1483
a(F199.01665282348222
F216.4499995333758
tp1484
a(F199.13959427350301
F216.45414362719674
tp1485
a(F199.19008529468351
F216.45584557173092
tp1486
a(F199.39547561762646
F216.46276884104358
tp1487
a(F199.51868552720984
F216.46692198406325
tp1488
a(F199.64416622671393
F216.47115167056339
tp1489
a(F199.69570376509876
F216.47288889095839
tp1490
a(F200.03116702901303
F216.48419664142742
tp1491
a(F200.15929235690737
F216.48851547270473
tp1492
a(F200.95981357273075
F216.51549933391226
tp1493
a(F201.29591434911589
F216.52682857356569
tp1494
a(F201.50346352247607
F216.53382461311716
tp1495
a(F201.78940620176269
F216.5434631303965
tp1496
a(F201.84708413711232
F216.54540733046446
tp1497
a(F201.91904420465369
F216.54783295071866
tp1498
a(F202.05932436386871
F216.55256149541131
tp1499
a(F202.35178925282668
F216.56241986245485
tp1500
a(F202.41079112324425
F216.56440868954758
tp1501
a(F202.4844068784611
F216.56689011949868
tp1502
a(F202.85625556695007
F216.57942434495337
tp1503
a(F202.92720054305749
F216.58181574864238
tp1504
a(F203.06292916887276
F216.58639087086087
tp1505
a(F203.44357976653697
F216.59922178988327
tp1506
a(F203.47413891113214
F216.60025187340895
tp1507
a(F204.04504345814675
F216.61949584690382
tp1508
a(F204.07634624789438
F216.62055099712003
tp1509
a(F204.69336861713248
F216.64134950394828
tp1510
a(F205.3612018765192
F216.66386073741077
tp1511
a(F205.40615767921238
F216.66537610154649
tp1512
a(F205.64723999765238
F216.67350247183097
tp1513
a(F205.91619527571595
F216.68256838008031
tp1514
a(F206.01085559205828
F216.68575917726039
tp1515
a(F206.05697836013499
F216.68731387730793
tp1516
a(F206.30434782608697
F216.69565217391303
tp1517
a(F206.42716379365228
F216.69979203798829
tp1518
a(F206.58037508372405
F216.7049564634963
tp1519
a(F206.67753896395934
F216.70823165047054
tp1520
a(F206.72488432471221
F216.70982756150715
tp1521
a(F206.97884158253052
F216.71838791851226
tp1522
a(F207.10494752623688
F216.72263868065966
tp1523
a(F207.26228089674177
F216.72794205269915
tp1524
a(F207.80111708492257
F216.7461050702783
tp1525
a(F209.41529201087403
F216.8005154610407
tp1526
a(F209.72221963997717
F216.81086133617902
tp1527
a(F210.16431059801113
F216.82576327858465
tp1528
a(F210.17705583756344
F216.82619289340101
tp1529
a(F210.29572591407447
F216.83019300833959
tp1530
a(F210.44263012379753
F216.83514483563363
tp1531
a(F210.49303820064262
F216.83684398429133
tp1532
a(F210.94831194196428
F216.85219029017858
tp1533
a(F210.96143969555465
F216.85263279872655
tp1534
a(F211.08367795864496
F216.85675318961725
tp1535
a(F211.16693610746051
F216.85955964407171
tp1536
a(F211.23501587507289
F216.86185446769909
tp1537
a(F211.28694954046915
F216.86360504068998
tp1538
a(F211.75609986966924
F216.87941909673043
tp1539
a(F211.89562578173764
F216.88412221736195
tp1540
a(F211.98145025295111
F216.88701517706576
tp1541
a(F212.05163287068487
F216.88938088328152
tp1542
a(F212.40619701823832
F216.90133248376085
tp1543
a(F212.82138177183552
F216.91532747545511
tp1544
a(F213.25960702486526
F216.93009911319771
tp1545
a(F213.59237847787239
F216.94131612846761
tp1546
a(F214.14056293343248
F216.9597942561831
tp1547
aa.